target datalayout = "e-m:e-p270:32:32-p271:32:32-p272:64:64-i64:64-i128:128-f80:128-n8:16:32:64-S128"
target triple = "x86_64-pc-linux-gnu"

@.str = private unnamed_addr constant [6 x i8] c"range\00", align 1

; Function Attrs: inlinehint nounwind uwtable
define internal i64 @_PyVectorcall_NARGS(i64 noundef %0) #4 {
  %2 = alloca i64, align 8
  store i64 %0, ptr %2, align 8, !tbaa !16
  %3 = load i64, ptr %2, align 8, !tbaa !16
  %4 = and i64 %3, 9223372036854775807
  ret i64 %4
}

; Function Attrs: nounwind uwtable
define internal ptr @range_vectorcall(ptr noundef %0, ptr noundef %1, i64 noundef %2, ptr noundef %3) #0 {
  %5 = alloca ptr, align 8
  %6 = alloca ptr, align 8
  %7 = alloca ptr, align 8
  %8 = alloca i64, align 8
  %9 = alloca ptr, align 8
  %10 = alloca i64, align 8
  %11 = alloca i32, align 4
  store ptr %0, ptr %6, align 8, !tbaa !18
  store ptr %1, ptr %7, align 8, !tbaa !26
  store i64 %2, ptr %8, align 8, !tbaa !16
  store ptr %3, ptr %9, align 8, !tbaa !18
  call void @llvm.lifetime.start.p0(i64 8, ptr %10) #5
  %12 = load i64, ptr %8, align 8, !tbaa !16
  %13 = call i64 @_PyVectorcall_NARGS(i64 noundef %12)
  store i64 %13, ptr %10, align 8, !tbaa !16
  %14 = load ptr, ptr %9, align 8, !tbaa !18
  %15 = icmp eq ptr %14, null
  br i1 %15, label %21, label %16

16:                                               ; preds = %4
  %17 = load ptr, ptr %9, align 8, !tbaa !18
  %18 = call i32 @_PyArg_NoKwnames(ptr noundef @.str, ptr noundef %17)
  %19 = icmp ne i32 %18, 0
  br i1 %19, label %21, label %20

20:                                               ; preds = %16
  store ptr null, ptr %5, align 8
  store i32 1, ptr %11, align 4
  br label %26

21:                                               ; preds = %16, %4
  %22 = load ptr, ptr %6, align 8, !tbaa !18
  %23 = load ptr, ptr %7, align 8, !tbaa !26
  %24 = load i64, ptr %10, align 8, !tbaa !16
  %25 = call ptr @range_from_array(ptr noundef %22, ptr noundef %23, i64 noundef %24)
  store ptr %25, ptr %5, align 8
  store i32 1, ptr %11, align 4
  br label %26

26:                                               ; preds = %21, %20
  call void @llvm.lifetime.end.p0(i64 8, ptr %10) #5
  %27 = load ptr, ptr %5, align 8
  ret ptr %27
}