; Function Attrs: nounwind uwtable
define internal ptr @range_vectorcall(ptr noundef %0, ptr noundef readonly captures(none) %1, i64 noundef %2, ptr noundef %3) #0 {
  %5 = and i64 %2, 9223372036854775807
  %6 = icmp eq ptr %3, null
  br i1 %6, label %9, label %7

7:                                                ; preds = %4
  %8 = tail call i32 @_PyArg_NoKwnames(ptr noundef nonnull @.str, ptr noundef nonnull %3) #6
  %.not = icmp eq i32 %8, 0
  br i1 %.not, label %11, label %9

9:                                                ; preds = %7, %4
  %10 = tail call fastcc ptr @range_from_array(ptr noundef %0, ptr noundef %1, i64 noundef %5)
  br label %11

11:                                               ; preds = %7, %9
  %.0 = phi ptr [ %10, %9 ], [ null, %7 ]
  ret ptr %.0
}